; Function Attrs: mustprogress uwtable
define noundef zeroext i1 @_ZN7jsonnet7Jsonnet15evaluateSnippetERKNSt7__cxx1112basic_stringIcSt11char_traitsIcESaIcEEES8_PS6_(ptr noundef nonnull align 8 dereferenceable(40) %0, ptr noundef nonnull readonly align 8 captures(none) dereferenceable(32) %1, ptr noundef nonnull readonly align 8 captures(none) dereferenceable(32) %2, ptr noundef %3) local_unnamed_addr #5 align 2 {
  %5 = alloca i32, align 4
  %6 = icmp eq ptr %3, null
  br i1 %6, label %27, label %7

7:                                                ; preds = %4
  call void @llvm.lifetime.start.p0(i64 4, ptr nonnull %5) #18
  store i32 0, ptr %5, align 4, !tbaa !21
  %8 = load ptr, ptr %0, align 8, !tbaa !6
  %9 = load ptr, ptr %1, align 8, !tbaa !19
  %10 = load ptr, ptr %2, align 8, !tbaa !19
  %11 = call ptr @jsonnet_evaluate_snippet(ptr noundef %8, ptr noundef %9, ptr noundef %10, ptr noundef nonnull %5)
  %12 = load i32, ptr %5, align 4, !tbaa !21
  %.not = icmp eq i32 %12, 0
  br i1 %.not, label %19, label %13

13:                                               ; preds = %7
  %14 = getelementptr inbounds nuw i8, ptr %0, i64 8
  %15 = getelementptr inbounds nuw i8, ptr %0, i64 16
  %16 = load i64, ptr %15, align 8, !tbaa !17
  %17 = call noundef i64 @strlen(ptr noundef nonnull dereferenceable(1) %11) #18
  %18 = call noundef nonnull align 8 dereferenceable(32) ptr @_ZNSt7__cxx1112basic_stringIcSt11char_traitsIcESaIcEE10_M_replaceEmmPKcm(ptr noundef nonnull align 8 dereferenceable(32) %14, i64 noundef 0, i64 noundef %16, ptr noundef nonnull %11, i64 noundef %17)
  br label %24

19:                                               ; preds = %7
  %20 = getelementptr inbounds nuw i8, ptr %3, i64 8
  %21 = load i64, ptr %20, align 8, !tbaa !17
  %22 = call noundef i64 @strlen(ptr noundef nonnull dereferenceable(1) %11) #18
  %23 = call noundef nonnull align 8 dereferenceable(32) ptr @_ZNSt7__cxx1112basic_stringIcSt11char_traitsIcESaIcEE10_M_replaceEmmPKcm(ptr noundef nonnull align 8 dereferenceable(32) %3, i64 noundef 0, i64 noundef %21, ptr noundef nonnull %11, i64 noundef %22)
  br label %24

24:                                               ; preds = %19, %13
  %25 = load ptr, ptr %0, align 8, !tbaa !6
  %26 = call ptr @jsonnet_realloc(ptr noundef %25, ptr noundef nonnull %11, i64 noundef 0)
  call void @llvm.lifetime.end.p0(i64 4, ptr nonnull %5) #18
  br label %27

27:                                               ; preds = %4, %24
  %.0 = phi i1 [ %.not, %24 ], [ false, %4 ]
  ret i1 %.0
}